target datalayout = "e-m:e-p270:32:32-p271:32:32-p272:64:64-i64:64-i128:128-f80:128-n8:16:32:64-S128"
target triple = "x86_64-pc-linux-gnu"

%struct.EventTriggerQueryState = type { ptr, %struct.slist_head, i8, i32, i32, i8, ptr, ptr, ptr }
%struct.slist_head = type { %struct.slist_node }
%struct.slist_node = type { ptr }

@.str.2 = private unnamed_addr constant [16 x i8] c"event_trigger.c\00", align 1
@currentEventTriggerState = internal global ptr null, align 8
@.str.22 = private unnamed_addr constant [64 x i8] c"%s can only be called in a table_rewrite event trigger function\00", align 1
@.str.23 = private unnamed_addr constant [37 x i8] c"pg_event_trigger_table_rewrite_oid()\00", align 1
@__func__.pg_event_trigger_table_rewrite_oid = private unnamed_addr constant [35 x i8] c"pg_event_trigger_table_rewrite_oid\00", align 1

; Function Attrs: inlinehint nounwind uwtable
define internal i64 @ObjectIdGetDatum(i32 noundef %0) #6 {
  %2 = alloca i32, align 4
  store i32 %0, ptr %2, align 4
  %3 = load i32, ptr %2, align 4
  %4 = zext i32 %3 to i64
  ret i64 %4
}

; Function Attrs: nounwind uwtable
define dso_local i64 @pg_event_trigger_table_rewrite_oid(ptr noundef %0) #0 {
  %2 = alloca ptr, align 8
  store ptr %0, ptr %2, align 8
  %3 = load ptr, ptr @currentEventTriggerState, align 8
  %4 = icmp ne ptr %3, null
  br i1 %4, label %5, label %10

5:                                                ; preds = %1
  %6 = load ptr, ptr @currentEventTriggerState, align 8
  %7 = getelementptr inbounds nuw %struct.EventTriggerQueryState, ptr %6, i32 0, i32 3
  %8 = load i32, ptr %7, align 4
  %9 = icmp eq i32 %8, 0
  br i1 %9, label %10, label %21

10:                                               ; preds = %5, %1
  br label %11

11:                                               ; preds = %10
  br i1 true, label %12, label %14

12:                                               ; preds = %11
  %13 = call zeroext i1 @errstart_cold(i32 noundef 21, ptr noundef null) #11
  br i1 %13, label %16, label %19

14:                                               ; preds = %11
  %15 = call zeroext i1 @errstart(i32 noundef 21, ptr noundef null)
  br i1 %15, label %16, label %19

16:                                               ; preds = %14, %12
  %17 = call i32 @errcode(i32 noundef 50463299)
  %18 = call i32 (ptr, ...) @errmsg(ptr noundef @.str.22, ptr noundef @.str.23)
  call void @errfinish(ptr noundef @.str.2, i32 noundef 1498, ptr noundef @__func__.pg_event_trigger_table_rewrite_oid)
  br label %19

19:                                               ; preds = %16, %14, %12
  unreachable

20:                                               ; No predecessors!
  br label %21

21:                                               ; preds = %20, %5
  %22 = load ptr, ptr @currentEventTriggerState, align 8
  %23 = getelementptr inbounds nuw %struct.EventTriggerQueryState, ptr %22, i32 0, i32 3
  %24 = load i32, ptr %23, align 4
  %25 = call i64 @ObjectIdGetDatum(i32 noundef %24)
  ret i64 %25
}